; Function Attrs: nounwind uwtable
define dso_local void @cbuf_flush(ptr noundef %0) local_unnamed_addr #0 {
  %2 = tail call i32 @pthread_mutex_lock(ptr noundef %0) #15
  %.not = icmp eq i32 %2, 0
  br i1 %.not, label %5, label %3

3:                                                ; preds = %1
  %4 = tail call ptr @__errno_location() #14
  store i32 %2, ptr %4, align 4
  tail call void (ptr, ...) @fatal_abort(ptr noundef nonnull @.str.2, ptr noundef nonnull @__func__.cbuf_flush) #16
  unreachable

5:                                                ; preds = %1
  %6 = getelementptr inbounds nuw i8, ptr %0, i64 56
  store i32 0, ptr %6, align 8
  %7 = getelementptr inbounds nuw i8, ptr %0, i64 64
  tail call void @llvm.memset.p0.i64(ptr noundef nonnull align 8 dereferenceable(16) %7, i8 0, i64 16, i1 false)
  %8 = tail call i32 @pthread_mutex_unlock(ptr noundef %0) #15
  %.not11 = icmp eq i32 %8, 0
  br i1 %.not11, label %11, label %9

9:                                                ; preds = %5
  %10 = tail call ptr @__errno_location() #14
  store i32 %8, ptr %10, align 4
  tail call void (ptr, ...) @fatal_abort(ptr noundef nonnull @.str.3, ptr noundef nonnull @__func__.cbuf_flush) #16
  unreachable

11:                                               ; preds = %5
  ret void
}